target datalayout = "e-m:e-p270:32:32-p271:32:32-p272:64:64-i64:64-i128:128-f80:128-n8:16:32:64-S128"
target triple = "x86_64-pc-linux-gnu"

%struct.global_State = type { ptr, ptr, %struct.GCState, %struct.GCstr, i8, i8, i8, i8, %struct.StrInternState, i32, %struct.GCRef, %struct.SBuf, %union.TValue, %union.TValue, %struct.Node, %union.TValue, %struct.GCupval, i32, i32, ptr, ptr, ptr, i32, i32, %struct.GCRef, %struct.MRef, %struct.MRef, %struct.PRNGState, [39 x %struct.GCRef] }
%struct.GCState = type { i64, i64, i8, i8, i8, i8, i32, %struct.GCRef, %struct.MRef, %struct.GCRef, %struct.GCRef, %struct.GCRef, %struct.GCRef, i64, i64, i32, i32, %struct.MRef }
%struct.GCstr = type { %struct.GCRef, i8, i8, i8, i8, i32, i32, i32 }
%struct.StrInternState = type { ptr, i32, i32, i32, i8, i8, i8, i8, i64 }
%struct.SBuf = type { ptr, ptr, ptr, %struct.MRef }
%struct.Node = type { %union.TValue, %union.TValue, %struct.MRef }
%union.TValue = type { i64 }
%struct.GCupval = type { %struct.GCRef, i8, i8, i8, i8, %union.anon, %struct.MRef, i32 }
%union.anon = type { %struct.anon.1 }
%struct.anon.1 = type { %struct.GCRef, %struct.GCRef }
%struct.GCRef = type { i64 }
%struct.MRef = type { i64 }
%struct.PRNGState = type { [4 x i64] }
%struct.GChead = type { %struct.GCRef, i8, i8, i8, i8, %struct.GCRef, %struct.GCRef, %struct.GCRef }

; Function Attrs: nounwind uwtable
define hidden void @lj_gc_barrierf(ptr noundef %0, ptr noundef %1, ptr noundef %2) #0 {
  %4 = alloca ptr, align 8
  %5 = alloca ptr, align 8
  %6 = alloca ptr, align 8
  store ptr %0, ptr %4, align 8, !tbaa !4
  store ptr %1, ptr %5, align 8, !tbaa !28
  store ptr %2, ptr %6, align 8, !tbaa !28
  %7 = load ptr, ptr %4, align 8, !tbaa !4
  %8 = getelementptr inbounds nuw %struct.global_State, ptr %7, i32 0, i32 2
  %9 = getelementptr inbounds nuw %struct.GCState, ptr %8, i32 0, i32 3
  %10 = load i8, ptr %9, align 1, !tbaa !84
  %11 = zext i8 %10 to i32
  %12 = icmp eq i32 %11, 1
  br i1 %12, label %20, label %13

13:                                               ; preds = %3
  %14 = load ptr, ptr %4, align 8, !tbaa !4
  %15 = getelementptr inbounds nuw %struct.global_State, ptr %14, i32 0, i32 2
  %16 = getelementptr inbounds nuw %struct.GCState, ptr %15, i32 0, i32 3
  %17 = load i8, ptr %16, align 1, !tbaa !84
  %18 = zext i8 %17 to i32
  %19 = icmp eq i32 %18, 2
  br i1 %19, label %20, label %23

20:                                               ; preds = %13, %3
  %21 = load ptr, ptr %4, align 8, !tbaa !4
  %22 = load ptr, ptr %6, align 8, !tbaa !28
  call void @gc_mark(ptr noundef %21, ptr noundef %22)
  br label %39

23:                                               ; preds = %13
  %24 = load ptr, ptr %5, align 8, !tbaa !28
  %25 = getelementptr inbounds nuw %struct.GChead, ptr %24, i32 0, i32 1
  %26 = load i8, ptr %25, align 8, !tbaa !30
  %27 = zext i8 %26 to i32
  %28 = and i32 %27, 248
  %29 = load ptr, ptr %4, align 8, !tbaa !4
  %30 = getelementptr inbounds nuw %struct.global_State, ptr %29, i32 0, i32 2
  %31 = getelementptr inbounds nuw %struct.GCState, ptr %30, i32 0, i32 2
  %32 = load i8, ptr %31, align 8, !tbaa !44
  %33 = zext i8 %32 to i32
  %34 = and i32 %33, 3
  %35 = or i32 %28, %34
  %36 = trunc i32 %35 to i8
  %37 = load ptr, ptr %5, align 8, !tbaa !28
  %38 = getelementptr inbounds nuw %struct.GChead, ptr %37, i32 0, i32 1
  store i8 %36, ptr %38, align 8, !tbaa !30
  br label %39

39:                                               ; preds = %23, %20
  ret void
}