; Function Attrs: nofree nosync nounwind memory(readwrite, inaccessiblemem: none) uwtable
define hidden void @lj_gc_barrierf(ptr noundef %0, ptr noundef captures(none) %1, ptr noundef %2) local_unnamed_addr #3 {
  %4 = getelementptr inbounds nuw i8, ptr %0, i64 33
  %5 = load i8, ptr %4, align 1, !tbaa !70
  %.off = add i8 %5, -1
  %switch = icmp ult i8 %.off, 2
  br i1 %switch, label %6, label %7

6:                                                ; preds = %3
  tail call fastcc void @gc_mark(ptr noundef nonnull %0, ptr noundef %2)
  br label %15

7:                                                ; preds = %3
  %8 = getelementptr inbounds nuw i8, ptr %1, i64 8
  %9 = load i8, ptr %8, align 8, !tbaa !23
  %10 = and i8 %9, -8
  %11 = getelementptr inbounds nuw i8, ptr %0, i64 32
  %12 = load i8, ptr %11, align 8, !tbaa !35
  %13 = and i8 %12, 3
  %14 = or disjoint i8 %13, %10
  store i8 %14, ptr %8, align 8, !tbaa !23
  br label %15

15:                                               ; preds = %7, %6
  ret void
}